target datalayout = "e-m:e-p270:32:32-p271:32:32-p272:64:64-i64:64-i128:128-f80:128-n8:16:32:64-S128"
target triple = "x86_64-pc-linux-gnu"

%struct._object = type { %union.anon, ptr }
%union.anon = type { i64 }
%struct.anon = type { i32, i32 }
%struct.ElementObject = type { %struct._object, ptr, ptr, ptr, ptr, ptr }
%struct.ElementObjectExtra = type { ptr, i64, i64, ptr, [4 x ptr] }

; Function Attrs: alwaysinline nounwind uwtable
define internal void @Py_INCREF(ptr noundef %0) #4 {
  %2 = alloca ptr, align 8
  %3 = alloca i32, align 4
  %4 = alloca i32, align 4
  store ptr %0, ptr %2, align 8, !tbaa !3
  call void @llvm.lifetime.start.p0(i64 4, ptr %3) #8
  %5 = load ptr, ptr %2, align 8, !tbaa !3
  %6 = getelementptr inbounds nuw %struct._object, ptr %5, i32 0, i32 0
  %7 = getelementptr inbounds nuw %struct.anon, ptr %6, i32 0, i32 0
  %8 = load i32, ptr %7, align 8, !tbaa !32
  store i32 %8, ptr %3, align 4, !tbaa !13
  %9 = load i32, ptr %3, align 4, !tbaa !13
  %10 = icmp slt i32 %9, 0
  br i1 %10, label %11, label %12

11:                                               ; preds = %1
  store i32 1, ptr %4, align 4
  br label %18

12:                                               ; preds = %1
  %13 = load i32, ptr %3, align 4, !tbaa !13
  %14 = add i32 %13, 1
  %15 = load ptr, ptr %2, align 8, !tbaa !3
  %16 = getelementptr inbounds nuw %struct._object, ptr %15, i32 0, i32 0
  %17 = getelementptr inbounds nuw %struct.anon, ptr %16, i32 0, i32 0
  store i32 %14, ptr %17, align 8, !tbaa !32
  store i32 0, ptr %4, align 4
  br label %18

18:                                               ; preds = %12, %11
  call void @llvm.lifetime.end.p0(i64 4, ptr %3) #8
  %19 = load i32, ptr %4, align 4
  switch i32 %19, label %21 [
    i32 0, label %20
    i32 1, label %20
  ]

20:                                               ; preds = %18, %18
  ret void

21:                                               ; preds = %18
  unreachable
}

; Function Attrs: inlinehint nounwind uwtable
define internal void @Py_XINCREF(ptr noundef %0) #3 {
  %2 = alloca ptr, align 8
  store ptr %0, ptr %2, align 8, !tbaa !3
  %3 = load ptr, ptr %2, align 8, !tbaa !3
  %4 = icmp ne ptr %3, null
  br i1 %4, label %5, label %7

5:                                                ; preds = %1
  %6 = load ptr, ptr %2, align 8, !tbaa !3
  call void @Py_INCREF(ptr noundef %6)
  br label %7

7:                                                ; preds = %5, %1
  ret void
}

; Function Attrs: inlinehint nounwind uwtable
define internal ptr @_Py_XNewRef(ptr noundef %0) #3 {
  %2 = alloca ptr, align 8
  store ptr %0, ptr %2, align 8, !tbaa !3
  %3 = load ptr, ptr %2, align 8, !tbaa !3
  call void @Py_XINCREF(ptr noundef %3)
  %4 = load ptr, ptr %2, align 8, !tbaa !3
  ret ptr %4
}

; Function Attrs: nounwind uwtable
define internal i32 @create_extra(ptr noundef %0, ptr noundef %1) #0 {
  %3 = alloca i32, align 4
  %4 = alloca ptr, align 8
  %5 = alloca ptr, align 8
  store ptr %0, ptr %4, align 8, !tbaa !8
  store ptr %1, ptr %5, align 8, !tbaa !3
  %6 = call ptr @PyMem_Malloc(i64 noundef 64)
  %7 = load ptr, ptr %4, align 8, !tbaa !8
  %8 = getelementptr inbounds nuw %struct.ElementObject, ptr %7, i32 0, i32 4
  store ptr %6, ptr %8, align 8, !tbaa !42
  %9 = load ptr, ptr %4, align 8, !tbaa !8
  %10 = getelementptr inbounds nuw %struct.ElementObject, ptr %9, i32 0, i32 4
  %11 = load ptr, ptr %10, align 8, !tbaa !42
  %12 = icmp ne ptr %11, null
  br i1 %12, label %15, label %13

13:                                               ; preds = %2
  %14 = call ptr @PyErr_NoMemory()
  store i32 -1, ptr %3, align 4
  br label %39

15:                                               ; preds = %2
  %16 = load ptr, ptr %5, align 8, !tbaa !3
  %17 = call ptr @_Py_XNewRef(ptr noundef %16)
  %18 = load ptr, ptr %4, align 8, !tbaa !8
  %19 = getelementptr inbounds nuw %struct.ElementObject, ptr %18, i32 0, i32 4
  %20 = load ptr, ptr %19, align 8, !tbaa !42
  %21 = getelementptr inbounds nuw %struct.ElementObjectExtra, ptr %20, i32 0, i32 0
  store ptr %17, ptr %21, align 8, !tbaa !53
  %22 = load ptr, ptr %4, align 8, !tbaa !8
  %23 = getelementptr inbounds nuw %struct.ElementObject, ptr %22, i32 0, i32 4
  %24 = load ptr, ptr %23, align 8, !tbaa !42
  %25 = getelementptr inbounds nuw %struct.ElementObjectExtra, ptr %24, i32 0, i32 1
  store i64 0, ptr %25, align 8, !tbaa !50
  %26 = load ptr, ptr %4, align 8, !tbaa !8
  %27 = getelementptr inbounds nuw %struct.ElementObject, ptr %26, i32 0, i32 4
  %28 = load ptr, ptr %27, align 8, !tbaa !42
  %29 = getelementptr inbounds nuw %struct.ElementObjectExtra, ptr %28, i32 0, i32 2
  store i64 4, ptr %29, align 8, !tbaa !54
  %30 = load ptr, ptr %4, align 8, !tbaa !8
  %31 = getelementptr inbounds nuw %struct.ElementObject, ptr %30, i32 0, i32 4
  %32 = load ptr, ptr %31, align 8, !tbaa !42
  %33 = getelementptr inbounds nuw %struct.ElementObjectExtra, ptr %32, i32 0, i32 4
  %34 = getelementptr inbounds [4 x ptr], ptr %33, i64 0, i64 0
  %35 = load ptr, ptr %4, align 8, !tbaa !8
  %36 = getelementptr inbounds nuw %struct.ElementObject, ptr %35, i32 0, i32 4
  %37 = load ptr, ptr %36, align 8, !tbaa !42
  %38 = getelementptr inbounds nuw %struct.ElementObjectExtra, ptr %37, i32 0, i32 3
  store ptr %34, ptr %38, align 8, !tbaa !48
  store i32 0, ptr %3, align 4
  br label %39

39:                                               ; preds = %15, %13
  %40 = load i32, ptr %3, align 4
  ret i32 %40
}

; Function Attrs: nounwind uwtable
define internal i32 @element_resize(ptr noundef %0, i64 noundef %1) #0 {
  %3 = alloca i32, align 4
  %4 = alloca ptr, align 8
  %5 = alloca i64, align 8
  %6 = alloca i64, align 8
  %7 = alloca ptr, align 8
  %8 = alloca i32, align 4
  store ptr %0, ptr %4, align 8, !tbaa !8
  store i64 %1, ptr %5, align 8, !tbaa !30
  call void @llvm.lifetime.start.p0(i64 8, ptr %6) #8
  call void @llvm.lifetime.start.p0(i64 8, ptr %7) #8
  %9 = load ptr, ptr %4, align 8, !tbaa !8
  %10 = getelementptr inbounds nuw %struct.ElementObject, ptr %9, i32 0, i32 4
  %11 = load ptr, ptr %10, align 8, !tbaa !42
  %12 = icmp ne ptr %11, null
  br i1 %12, label %19, label %13

13:                                               ; preds = %2
  %14 = load ptr, ptr %4, align 8, !tbaa !8
  %15 = call i32 @create_extra(ptr noundef %14, ptr noundef null)
  %16 = icmp slt i32 %15, 0
  br i1 %16, label %17, label %18

17:                                               ; preds = %13
  store i32 -1, ptr %3, align 4
  store i32 1, ptr %8, align 4
  br label %113

18:                                               ; preds = %13
  br label %19

19:                                               ; preds = %18, %2
  %20 = load ptr, ptr %4, align 8, !tbaa !8
  %21 = getelementptr inbounds nuw %struct.ElementObject, ptr %20, i32 0, i32 4
  %22 = load ptr, ptr %21, align 8, !tbaa !42
  %23 = getelementptr inbounds nuw %struct.ElementObjectExtra, ptr %22, i32 0, i32 1
  %24 = load i64, ptr %23, align 8, !tbaa !50
  %25 = load i64, ptr %5, align 8, !tbaa !30
  %26 = add i64 %24, %25
  store i64 %26, ptr %6, align 8, !tbaa !30
  %27 = load i64, ptr %6, align 8, !tbaa !30
  %28 = load ptr, ptr %4, align 8, !tbaa !8
  %29 = getelementptr inbounds nuw %struct.ElementObject, ptr %28, i32 0, i32 4
  %30 = load ptr, ptr %29, align 8, !tbaa !42
  %31 = getelementptr inbounds nuw %struct.ElementObjectExtra, ptr %30, i32 0, i32 2
  %32 = load i64, ptr %31, align 8, !tbaa !54
  %33 = icmp sgt i64 %27, %32
  br i1 %33, label %34, label %110

34:                                               ; preds = %19
  %35 = load i64, ptr %6, align 8, !tbaa !30
  %36 = ashr i64 %35, 3
  %37 = load i64, ptr %6, align 8, !tbaa !30
  %38 = icmp slt i64 %37, 9
  %39 = select i1 %38, i32 3, i32 6
  %40 = sext i32 %39 to i64
  %41 = add i64 %36, %40
  %42 = load i64, ptr %6, align 8, !tbaa !30
  %43 = add i64 %41, %42
  store i64 %43, ptr %6, align 8, !tbaa !30
  %44 = load i64, ptr %6, align 8, !tbaa !30
  %45 = icmp ne i64 %44, 0
  br i1 %45, label %46, label %48

46:                                               ; preds = %34
  %47 = load i64, ptr %6, align 8, !tbaa !30
  br label %49

48:                                               ; preds = %34
  br label %49

49:                                               ; preds = %48, %46
  %50 = phi i64 [ %47, %46 ], [ 1, %48 ]
  store i64 %50, ptr %6, align 8, !tbaa !30
  %51 = load i64, ptr %6, align 8, !tbaa !30
  %52 = icmp ugt i64 %51, 1152921504606846975
  br i1 %52, label %53, label %54

53:                                               ; preds = %49
  br label %111

54:                                               ; preds = %49
  %55 = load ptr, ptr %4, align 8, !tbaa !8
  %56 = getelementptr inbounds nuw %struct.ElementObject, ptr %55, i32 0, i32 4
  %57 = load ptr, ptr %56, align 8, !tbaa !42
  %58 = getelementptr inbounds nuw %struct.ElementObjectExtra, ptr %57, i32 0, i32 3
  %59 = load ptr, ptr %58, align 8, !tbaa !48
  %60 = load ptr, ptr %4, align 8, !tbaa !8
  %61 = getelementptr inbounds nuw %struct.ElementObject, ptr %60, i32 0, i32 4
  %62 = load ptr, ptr %61, align 8, !tbaa !42
  %63 = getelementptr inbounds nuw %struct.ElementObjectExtra, ptr %62, i32 0, i32 4
  %64 = getelementptr inbounds [4 x ptr], ptr %63, i64 0, i64 0
  %65 = icmp ne ptr %59, %64
  br i1 %65, label %66, label %79

66:                                               ; preds = %54
  %67 = load ptr, ptr %4, align 8, !tbaa !8
  %68 = getelementptr inbounds nuw %struct.ElementObject, ptr %67, i32 0, i32 4
  %69 = load ptr, ptr %68, align 8, !tbaa !42
  %70 = getelementptr inbounds nuw %struct.ElementObjectExtra, ptr %69, i32 0, i32 3
  %71 = load ptr, ptr %70, align 8, !tbaa !48
  %72 = load i64, ptr %6, align 8, !tbaa !30
  %73 = mul i64 %72, 8
  %74 = call ptr @PyMem_Realloc(ptr noundef %71, i64 noundef %73)
  store ptr %74, ptr %7, align 8, !tbaa !24
  %75 = load ptr, ptr %7, align 8, !tbaa !24
  %76 = icmp ne ptr %75, null
  br i1 %76, label %78, label %77

77:                                               ; preds = %66
  br label %111

78:                                               ; preds = %66
  br label %99

79:                                               ; preds = %54
  %80 = load i64, ptr %6, align 8, !tbaa !30
  %81 = mul i64 %80, 8
  %82 = call ptr @PyMem_Malloc(i64 noundef %81)
  store ptr %82, ptr %7, align 8, !tbaa !24
  %83 = load ptr, ptr %7, align 8, !tbaa !24
  %84 = icmp ne ptr %83, null
  br i1 %84, label %86, label %85

85:                                               ; preds = %79
  br label %111

86:                                               ; preds = %79
  %87 = load ptr, ptr %7, align 8, !tbaa !24
  %88 = load ptr, ptr %4, align 8, !tbaa !8
  %89 = getelementptr inbounds nuw %struct.ElementObject, ptr %88, i32 0, i32 4
  %90 = load ptr, ptr %89, align 8, !tbaa !42
  %91 = getelementptr inbounds nuw %struct.ElementObjectExtra, ptr %90, i32 0, i32 3
  %92 = load ptr, ptr %91, align 8, !tbaa !48
  %93 = load ptr, ptr %4, align 8, !tbaa !8
  %94 = getelementptr inbounds nuw %struct.ElementObject, ptr %93, i32 0, i32 4
  %95 = load ptr, ptr %94, align 8, !tbaa !42
  %96 = getelementptr inbounds nuw %struct.ElementObjectExtra, ptr %95, i32 0, i32 1
  %97 = load i64, ptr %96, align 8, !tbaa !50
  %98 = mul i64 %97, 8
  call void @llvm.memcpy.p0.p0.i64(ptr align 8 %87, ptr align 8 %92, i64 %98, i1 false)
  br label %99

99:                                               ; preds = %86, %78
  %100 = load ptr, ptr %7, align 8, !tbaa !24
  %101 = load ptr, ptr %4, align 8, !tbaa !8
  %102 = getelementptr inbounds nuw %struct.ElementObject, ptr %101, i32 0, i32 4
  %103 = load ptr, ptr %102, align 8, !tbaa !42
  %104 = getelementptr inbounds nuw %struct.ElementObjectExtra, ptr %103, i32 0, i32 3
  store ptr %100, ptr %104, align 8, !tbaa !48
  %105 = load i64, ptr %6, align 8, !tbaa !30
  %106 = load ptr, ptr %4, align 8, !tbaa !8
  %107 = getelementptr inbounds nuw %struct.ElementObject, ptr %106, i32 0, i32 4
  %108 = load ptr, ptr %107, align 8, !tbaa !42
  %109 = getelementptr inbounds nuw %struct.ElementObjectExtra, ptr %108, i32 0, i32 2
  store i64 %105, ptr %109, align 8, !tbaa !54
  br label %110

110:                                              ; preds = %99, %19
  store i32 0, ptr %3, align 4
  store i32 1, ptr %8, align 4
  br label %113

111:                                              ; preds = %85, %77, %53
  %112 = call ptr @PyErr_NoMemory()
  store i32 -1, ptr %3, align 4
  store i32 1, ptr %8, align 4
  br label %113

113:                                              ; preds = %111, %110, %17
  call void @llvm.lifetime.end.p0(i64 8, ptr %7) #8
  call void @llvm.lifetime.end.p0(i64 8, ptr %6) #8
  %114 = load i32, ptr %3, align 4
  ret i32 %114
}