; Function Attrs: nounwind uwtable
define internal fastcc range(i32 -1, 1) i32 @element_resize(ptr noundef captures(none) %0, i64 noundef %1) unnamed_addr #0 {
  %3 = getelementptr inbounds nuw i8, ptr %0, i64 40
  %4 = load ptr, ptr %3, align 8, !tbaa !37
  %.not = icmp eq ptr %4, null
  br i1 %.not, label %5, label %._crit_edge

._crit_edge:                                      ; preds = %2
  %.phi.trans.insert = getelementptr inbounds nuw i8, ptr %4, i64 8
  %.pre = load i64, ptr %.phi.trans.insert, align 8, !tbaa !42
  %.phi.trans.insert37 = getelementptr inbounds nuw i8, ptr %4, i64 16
  %.pre38 = load i64, ptr %.phi.trans.insert37, align 8, !tbaa !53
  br label %11

5:                                                ; preds = %2
  %6 = tail call ptr @PyMem_Malloc(i64 noundef 64) #12
  store ptr %6, ptr %3, align 8, !tbaa !37
  %.not.i = icmp eq ptr %6, null
  br i1 %.not.i, label %create_extra.exit.thread, label %create_extra.exit

create_extra.exit.thread:                         ; preds = %5
  %7 = tail call ptr @PyErr_NoMemory() #12
  br label %47

create_extra.exit:                                ; preds = %5
  %8 = getelementptr inbounds nuw i8, ptr %6, i64 16
  tail call void @llvm.memset.p0.i64(ptr noundef nonnull align 8 dereferenceable(16) %6, i8 0, i64 16, i1 false)
  store i64 4, ptr %8, align 8, !tbaa !53
  %9 = getelementptr inbounds nuw i8, ptr %6, i64 32
  %10 = getelementptr inbounds nuw i8, ptr %6, i64 24
  store ptr %9, ptr %10, align 8, !tbaa !39
  br label %11

11:                                               ; preds = %._crit_edge, %create_extra.exit
  %12 = phi i64 [ 4, %create_extra.exit ], [ %.pre38, %._crit_edge ]
  %13 = phi i64 [ 0, %create_extra.exit ], [ %.pre, %._crit_edge ]
  %14 = phi ptr [ %6, %create_extra.exit ], [ %4, %._crit_edge ]
  %15 = add i64 %13, %1
  %16 = icmp sgt i64 %15, %12
  br i1 %16, label %17, label %47

17:                                               ; preds = %11
  %18 = ashr i64 %15, 3
  %19 = icmp slt i64 %15, 9
  %20 = select i1 %19, i64 3, i64 6
  %21 = add i64 %18, %15
  %22 = add i64 %21, %20
  %23 = tail call i64 @llvm.umax.i64(i64 %22, i64 1)
  %24 = icmp ugt i64 %22, 1152921504606846975
  br i1 %24, label %45, label %25

25:                                               ; preds = %17
  %26 = getelementptr inbounds nuw i8, ptr %14, i64 24
  %27 = load ptr, ptr %26, align 8, !tbaa !39
  %28 = getelementptr inbounds nuw i8, ptr %14, i64 32
  %.not33 = icmp eq ptr %27, %28
  %29 = shl nuw nsw i64 %23, 3
  br i1 %.not33, label %32, label %30

30:                                               ; preds = %25
  %31 = tail call ptr @PyMem_Realloc(ptr noundef %27, i64 noundef %29) #12
  %.not35 = icmp eq ptr %31, null
  br i1 %.not35, label %45, label %41

32:                                               ; preds = %25
  %33 = tail call ptr @PyMem_Malloc(i64 noundef %29) #12
  %.not34 = icmp eq ptr %33, null
  br i1 %.not34, label %45, label %34

34:                                               ; preds = %32
  %35 = load ptr, ptr %3, align 8, !tbaa !37
  %36 = getelementptr inbounds nuw i8, ptr %35, i64 24
  %37 = load ptr, ptr %36, align 8, !tbaa !39
  %38 = getelementptr inbounds nuw i8, ptr %35, i64 8
  %39 = load i64, ptr %38, align 8, !tbaa !42
  %40 = shl i64 %39, 3
  tail call void @llvm.memcpy.p0.p0.i64(ptr nonnull align 8 %33, ptr align 8 %37, i64 %40, i1 false)
  br label %41

41:                                               ; preds = %30, %34
  %.0 = phi ptr [ %31, %30 ], [ %33, %34 ]
  %42 = load ptr, ptr %3, align 8, !tbaa !37
  %43 = getelementptr inbounds nuw i8, ptr %42, i64 24
  store ptr %.0, ptr %43, align 8, !tbaa !39
  %44 = getelementptr inbounds nuw i8, ptr %42, i64 16
  store i64 %23, ptr %44, align 8, !tbaa !53
  br label %47

45:                                               ; preds = %32, %30, %17
  %46 = tail call ptr @PyErr_NoMemory() #12
  br label %47

47:                                               ; preds = %create_extra.exit.thread, %11, %41, %45
  %.026 = phi i32 [ -1, %45 ], [ 0, %41 ], [ 0, %11 ], [ -1, %create_extra.exit.thread ]
  ret i32 %.026
}